target datalayout = "e-m:e-p270:32:32-p271:32:32-p272:64:64-i64:64-i128:128-f80:128-n8:16:32:64-S128"
target triple = "x86_64-pc-linux-gnu"

%class.symbol = type { ptr }
%class.vector.10 = type { ptr }
%class.ast = type { i32, i32, i32, i32 }
%class.app = type { %class.expr, ptr, i32, %struct.app_flags, [0 x ptr] }
%class.expr = type { %class.ast }
%struct.app_flags = type <{ i16, i8, i8 }>
%"class.datalog::rule" = type { %"class.datalog::accounted_object.base", ptr, ptr, i32, i32, i32, i32, %class.symbol, [0 x ptr] }
%"class.datalog::accounted_object.base" = type <{ ptr, ptr, %"struct.datalog::costs", %"struct.datalog::costs", i8 }>
%"struct.datalog::costs" = type { i32, i32 }

; Function Attrs: mustprogress uwtable
define linkonce_odr hidden noundef nonnull align 8 dereferenceable(8) ptr @_ZN6vectorIP9func_declLb0EjE9push_backEOS1_(ptr noundef nonnull align 8 dereferenceable(8) %0, ptr noundef nonnull align 8 dereferenceable(8) %1) #4 comdat align 2 {
  %3 = alloca ptr, align 8
  %4 = alloca ptr, align 8
  store ptr %0, ptr %3, align 8, !tbaa !449
  store ptr %1, ptr %4, align 8, !tbaa !532
  %5 = load ptr, ptr %3, align 8
  %6 = getelementptr inbounds nuw %class.vector.10, ptr %5, i32 0, i32 0
  %7 = load ptr, ptr %6, align 8, !tbaa !531
  %8 = icmp eq ptr %7, null
  br i1 %8, label %19, label %9

9:                                                ; preds = %2
  %10 = getelementptr inbounds nuw %class.vector.10, ptr %5, i32 0, i32 0
  %11 = load ptr, ptr %10, align 8, !tbaa !531
  %12 = getelementptr inbounds i32, ptr %11, i64 -1
  %13 = load i32, ptr %12, align 4, !tbaa !10
  %14 = getelementptr inbounds nuw %class.vector.10, ptr %5, i32 0, i32 0
  %15 = load ptr, ptr %14, align 8, !tbaa !531
  %16 = getelementptr inbounds i32, ptr %15, i64 -2
  %17 = load i32, ptr %16, align 4, !tbaa !10
  %18 = icmp eq i32 %13, %17
  br i1 %18, label %19, label %20

19:                                               ; preds = %9, %2
  call void @_ZN6vectorIP9func_declLb0EjE13expand_vectorEv(ptr noundef nonnull align 8 dereferenceable(8) %5)
  br label %20

20:                                               ; preds = %19, %9
  %21 = getelementptr inbounds nuw %class.vector.10, ptr %5, i32 0, i32 0
  %22 = load ptr, ptr %21, align 8, !tbaa !531
  %23 = getelementptr inbounds nuw %class.vector.10, ptr %5, i32 0, i32 0
  %24 = load ptr, ptr %23, align 8, !tbaa !531
  %25 = getelementptr inbounds i32, ptr %24, i64 -1
  %26 = load i32, ptr %25, align 4, !tbaa !10
  %27 = zext i32 %26 to i64
  %28 = getelementptr inbounds nuw ptr, ptr %22, i64 %27
  %29 = load ptr, ptr %4, align 8, !tbaa !532
  %30 = load ptr, ptr %29, align 8, !tbaa !322
  store ptr %30, ptr %28, align 8, !tbaa !322
  %31 = getelementptr inbounds nuw %class.vector.10, ptr %5, i32 0, i32 0
  %32 = load ptr, ptr %31, align 8, !tbaa !531
  %33 = getelementptr inbounds i32, ptr %32, i64 -1
  %34 = load i32, ptr %33, align 4, !tbaa !10
  %35 = add i32 %34, 1
  store i32 %35, ptr %33, align 4, !tbaa !10
  ret ptr %5
}

; Function Attrs: mustprogress nounwind uwtable
define linkonce_odr hidden noundef ptr @_ZNK3app8get_declEv(ptr noundef nonnull align 8 dereferenceable(32) %0) #5 comdat align 2 {
  %2 = alloca ptr, align 8
  store ptr %0, ptr %2, align 8, !tbaa !181
  %3 = load ptr, ptr %2, align 8
  %4 = getelementptr inbounds nuw %class.app, ptr %3, i32 0, i32 1
  %5 = load ptr, ptr %4, align 8, !tbaa !329
  ret ptr %5
}

; Function Attrs: mustprogress nounwind uwtable
define linkonce_odr hidden noundef ptr @_ZNK7datalog4rule8get_tailEj(ptr noundef nonnull align 8 dereferenceable(80) %0, i32 noundef %1) #5 comdat align 2 {
  %3 = alloca ptr, align 8
  %4 = alloca i32, align 4
  store ptr %0, ptr %3, align 8, !tbaa !204
  store i32 %1, ptr %4, align 4, !tbaa !10
  %5 = load ptr, ptr %3, align 8
  %6 = getelementptr inbounds nuw %"class.datalog::rule", ptr %5, i32 0, i32 8
  %7 = load i32, ptr %4, align 4, !tbaa !10
  %8 = zext i32 %7 to i64
  %9 = getelementptr inbounds nuw [0 x ptr], ptr %6, i64 0, i64 %8
  %10 = load ptr, ptr %9, align 8, !tbaa !181
  %11 = ptrtoint ptr %10 to i64
  %12 = and i64 %11, -8
  %13 = inttoptr i64 %12 to ptr
  ret ptr %13
}

; Function Attrs: mustprogress nounwind uwtable
define linkonce_odr hidden noundef i32 @_ZNK7datalog4rule27get_uninterpreted_tail_sizeEv(ptr noundef nonnull align 8 dereferenceable(80) %0) #5 comdat align 2 {
  %2 = alloca ptr, align 8
  store ptr %0, ptr %2, align 8, !tbaa !204
  %3 = load ptr, ptr %2, align 8
  %4 = getelementptr inbounds nuw %"class.datalog::rule", ptr %3, i32 0, i32 6
  %5 = load i32, ptr %4, align 4, !tbaa !526
  ret i32 %5
}

; Function Attrs: mustprogress nounwind uwtable
define linkonce_odr hidden void @_ZN6vectorIP9func_declLb0EjE5resetEv(ptr noundef nonnull align 8 dereferenceable(8) %0) #5 comdat align 2 {
  %2 = alloca ptr, align 8
  store ptr %0, ptr %2, align 8, !tbaa !449
  %3 = load ptr, ptr %2, align 8
  %4 = getelementptr inbounds nuw %class.vector.10, ptr %3, i32 0, i32 0
  %5 = load ptr, ptr %4, align 8, !tbaa !531
  %6 = icmp ne ptr %5, null
  br i1 %6, label %7, label %11

7:                                                ; preds = %1
  %8 = getelementptr inbounds nuw %class.vector.10, ptr %3, i32 0, i32 0
  %9 = load ptr, ptr %8, align 8, !tbaa !531
  %10 = getelementptr inbounds i32, ptr %9, i64 -1
  store i32 0, ptr %10, align 4, !tbaa !10
  br label %11

11:                                               ; preds = %7, %1
  ret void
}

; Function Attrs: mustprogress uwtable
define hidden void @_ZNK6spacer16pred_transformer17find_predecessorsERKN7datalog4ruleER10ptr_vectorI9func_declE(ptr noundef nonnull align 8 dereferenceable(472) %0, ptr noundef nonnull align 8 dereferenceable(80) %1, ptr noundef nonnull align 8 dereferenceable(8) %2) #4 align 2 {
  %4 = alloca ptr, align 8
  %5 = alloca ptr, align 8
  %6 = alloca ptr, align 8
  %7 = alloca i32, align 4
  %8 = alloca i32, align 4
  %9 = alloca ptr, align 8
  store ptr %0, ptr %4, align 8, !tbaa !8
  store ptr %1, ptr %5, align 8, !tbaa !204
  store ptr %2, ptr %6, align 8, !tbaa !437
  %10 = load ptr, ptr %6, align 8, !tbaa !437
  call void @_ZN6vectorIP9func_declLb0EjE5resetEv(ptr noundef nonnull align 8 dereferenceable(8) %10)
  call void @llvm.lifetime.start.p0(i64 4, ptr %7) #3
  %11 = load ptr, ptr %5, align 8, !tbaa !204
  %12 = call noundef i32 @_ZNK7datalog4rule27get_uninterpreted_tail_sizeEv(ptr noundef nonnull align 8 dereferenceable(80) %11)
  store i32 %12, ptr %7, align 4, !tbaa !10
  call void @llvm.lifetime.start.p0(i64 4, ptr %8) #3
  store i32 0, ptr %8, align 4, !tbaa !10
  br label %13

13:                                               ; preds = %25, %3
  %14 = load i32, ptr %8, align 4, !tbaa !10
  %15 = load i32, ptr %7, align 4, !tbaa !10
  %16 = icmp ult i32 %14, %15
  br i1 %16, label %18, label %17

17:                                               ; preds = %13
  call void @llvm.lifetime.end.p0(i64 4, ptr %8) #3
  br label %28

18:                                               ; preds = %13
  %19 = load ptr, ptr %6, align 8, !tbaa !437
  call void @llvm.lifetime.start.p0(i64 8, ptr %9) #3
  %20 = load ptr, ptr %5, align 8, !tbaa !204
  %21 = load i32, ptr %8, align 4, !tbaa !10
  %22 = call noundef ptr @_ZNK7datalog4rule8get_tailEj(ptr noundef nonnull align 8 dereferenceable(80) %20, i32 noundef %21)
  %23 = call noundef ptr @_ZNK3app8get_declEv(ptr noundef nonnull align 8 dereferenceable(32) %22)
  store ptr %23, ptr %9, align 8, !tbaa !322
  %24 = call noundef nonnull align 8 dereferenceable(8) ptr @_ZN6vectorIP9func_declLb0EjE9push_backEOS1_(ptr noundef nonnull align 8 dereferenceable(8) %19, ptr noundef nonnull align 8 dereferenceable(8) %9)
  call void @llvm.lifetime.end.p0(i64 8, ptr %9) #3
  br label %25

25:                                               ; preds = %18
  %26 = load i32, ptr %8, align 4, !tbaa !10
  %27 = add i32 %26, 1
  store i32 %27, ptr %8, align 4, !tbaa !10
  br label %13, !llvm.loop !530

28:                                               ; preds = %17
  call void @llvm.lifetime.end.p0(i64 4, ptr %7) #3
  ret void
}