; Function Attrs: mustprogress uwtable
define hidden void @_ZNK6spacer16pred_transformer17find_predecessorsERKN7datalog4ruleER10ptr_vectorI9func_declE(ptr noundef nonnull readnone align 8 captures(none) dereferenceable(472) %0, ptr noundef nonnull readonly align 8 captures(none) dereferenceable(80) %1, ptr noundef nonnull align 8 dereferenceable(8) %2) local_unnamed_addr #3 align 2 {
  %4 = load ptr, ptr %2, align 8, !tbaa !308
  %.not.i = icmp eq ptr %4, null
  br i1 %.not.i, label %_ZN6vectorIP9func_declLb0EjE5resetEv.exit, label %5

5:                                                ; preds = %3
  %6 = getelementptr inbounds i8, ptr %4, i64 -4
  store i32 0, ptr %6, align 4, !tbaa !100
  br label %_ZN6vectorIP9func_declLb0EjE5resetEv.exit

_ZN6vectorIP9func_declLb0EjE5resetEv.exit:        ; preds = %3, %5
  %7 = getelementptr inbounds nuw i8, ptr %1, i64 68
  %8 = load i32, ptr %7, align 4, !tbaa !509
  %.not = icmp eq i32 %8, 0
  br i1 %.not, label %._crit_edge, label %.lr.ph

.lr.ph:                                           ; preds = %_ZN6vectorIP9func_declLb0EjE5resetEv.exit
  %9 = getelementptr inbounds nuw i8, ptr %1, i64 80
  %wide.trip.count = zext i32 %8 to i64
  br label %10

._crit_edge:                                      ; preds = %_ZN6vectorIP9func_declLb0EjE9push_backEOS1_.exit, %_ZN6vectorIP9func_declLb0EjE5resetEv.exit
  ret void

10:                                               ; preds = %.lr.ph, %_ZN6vectorIP9func_declLb0EjE9push_backEOS1_.exit
  %11 = phi ptr [ %4, %.lr.ph ], [ %27, %_ZN6vectorIP9func_declLb0EjE9push_backEOS1_.exit ]
  %indvars.iv = phi i64 [ 0, %.lr.ph ], [ %indvars.iv.next, %_ZN6vectorIP9func_declLb0EjE9push_backEOS1_.exit ]
  %12 = getelementptr inbounds nuw [0 x ptr], ptr %9, i64 0, i64 %indvars.iv
  %13 = load ptr, ptr %12, align 8, !tbaa !107
  %14 = ptrtoint ptr %13 to i64
  %15 = and i64 %14, -8
  %16 = inttoptr i64 %15 to ptr
  %17 = getelementptr inbounds nuw i8, ptr %16, i64 16
  %18 = load ptr, ptr %17, align 8, !tbaa !331
  %19 = icmp eq ptr %11, null
  br i1 %19, label %26, label %20

20:                                               ; preds = %10
  %21 = getelementptr inbounds i8, ptr %11, i64 -4
  %22 = load i32, ptr %21, align 4, !tbaa !100
  %23 = getelementptr inbounds i8, ptr %11, i64 -8
  %24 = load i32, ptr %23, align 4, !tbaa !100
  %25 = icmp eq i32 %22, %24
  br i1 %25, label %26, label %_ZN6vectorIP9func_declLb0EjE9push_backEOS1_.exit

26:                                               ; preds = %20, %10
  tail call void @_ZN6vectorIP9func_declLb0EjE13expand_vectorEv(ptr noundef nonnull align 8 dereferenceable(8) %2)
  %.pre.i = load ptr, ptr %2, align 8, !tbaa !308
  %.phi.trans.insert.i = getelementptr inbounds i8, ptr %.pre.i, i64 -4
  %.pre2.i = load i32, ptr %.phi.trans.insert.i, align 4, !tbaa !100
  br label %_ZN6vectorIP9func_declLb0EjE9push_backEOS1_.exit

_ZN6vectorIP9func_declLb0EjE9push_backEOS1_.exit: ; preds = %20, %26
  %27 = phi ptr [ %.pre.i, %26 ], [ %11, %20 ]
  %28 = phi i32 [ %.pre2.i, %26 ], [ %22, %20 ]
  %29 = getelementptr inbounds i8, ptr %27, i64 -4
  %30 = zext i32 %28 to i64
  %31 = getelementptr inbounds nuw ptr, ptr %27, i64 %30
  store ptr %18, ptr %31, align 8, !tbaa !309
  %32 = add i32 %28, 1
  store i32 %32, ptr %29, align 4, !tbaa !100
  %indvars.iv.next = add nuw nsw i64 %indvars.iv, 1
  %exitcond.not = icmp eq i64 %indvars.iv.next, %wide.trip.count
  br i1 %exitcond.not, label %._crit_edge, label %10, !llvm.loop !521
}